; Function Attrs: mustprogress nofree norecurse nosync nounwind memory(readwrite, inaccessiblemem: none) uwtable
define internal noundef range(i32 -9, 10559488) i32 @_ZL20_UTF16LEGetNextUCharP23UConverterToUnicodeArgsP10UErrorCode(ptr noundef captures(none) %0, ptr noundef writeonly captures(none) %1) #3 {
  %3 = getelementptr inbounds nuw i8, ptr %0, i64 8
  %4 = load ptr, ptr %3, align 8, !tbaa !16
  %5 = getelementptr inbounds nuw i8, ptr %4, i64 76
  %6 = load i32, ptr %5, align 4, !tbaa !12
  %7 = icmp slt i32 %6, 8
  br i1 %7, label %68, label %8

8:                                                ; preds = %2
  %9 = getelementptr inbounds nuw i8, ptr %0, i64 16
  %10 = load ptr, ptr %9, align 8, !tbaa !22
  %11 = ptrtoint ptr %10 to i64
  %12 = getelementptr inbounds nuw i8, ptr %0, i64 24
  %13 = load ptr, ptr %12, align 8, !tbaa !23
  %14 = ptrtoint ptr %13 to i64
  %.not = icmp ult ptr %10, %13
  br i1 %.not, label %16, label %15

15:                                               ; preds = %8
  store i32 8, ptr %1, align 4, !tbaa !14
  br label %68

16:                                               ; preds = %8
  %17 = getelementptr inbounds nuw i8, ptr %10, i64 2
  %18 = icmp ugt ptr %17, %13
  %19 = getelementptr inbounds nuw i8, ptr %10, i64 1
  br i1 %18, label %20, label %25

20:                                               ; preds = %16
  %21 = load i8, ptr %10, align 1, !tbaa !28
  %22 = getelementptr inbounds nuw i8, ptr %4, i64 65
  store i8 %21, ptr %22, align 1, !tbaa !28
  %23 = load ptr, ptr %3, align 8, !tbaa !16
  %24 = getelementptr inbounds nuw i8, ptr %23, i64 64
  store i8 1, ptr %24, align 8, !tbaa !29
  store ptr %19, ptr %9, align 8, !tbaa !22
  store i32 11, ptr %1, align 4, !tbaa !14
  br label %68

25:                                               ; preds = %16
  %26 = load i8, ptr %19, align 1, !tbaa !28
  %27 = zext i8 %26 to i32
  %28 = shl nuw nsw i32 %27, 8
  %29 = load i8, ptr %10, align 1, !tbaa !28
  %30 = zext i8 %29 to i32
  %31 = or disjoint i32 %28, %30
  %32 = and i32 %27, 248
  %33 = icmp eq i32 %32, 216
  br i1 %33, label %34, label %67

34:                                               ; preds = %25
  %35 = and i32 %27, 4
  %36 = icmp eq i32 %35, 0
  br i1 %36, label %37, label %.thread

37:                                               ; preds = %34
  %38 = getelementptr inbounds nuw i8, ptr %10, i64 4
  %.not58 = icmp ugt ptr %38, %13
  br i1 %.not58, label %45, label %39

39:                                               ; preds = %37
  %40 = getelementptr inbounds nuw i8, ptr %10, i64 3
  %41 = load i8, ptr %40, align 1, !tbaa !28
  %42 = zext i8 %41 to i32
  %43 = and i32 %42, 252
  %44 = icmp eq i32 %43, 220
  br i1 %44, label %54, label %.thread

45:                                               ; preds = %37
  %46 = getelementptr inbounds nuw i8, ptr %4, i64 65
  %47 = sub i64 %14, %11
  %48 = trunc i64 %47 to i8
  %49 = getelementptr inbounds nuw i8, ptr %4, i64 64
  store i8 %48, ptr %49, align 8, !tbaa !29
  %scevgep = getelementptr i8, ptr %10, i64 %47
  br label %50

50:                                               ; preds = %50, %45
  %.2 = phi ptr [ %10, %45 ], [ %51, %50 ]
  %.048 = phi ptr [ %46, %45 ], [ %53, %50 ]
  %51 = getelementptr inbounds nuw i8, ptr %.2, i64 1
  %52 = load i8, ptr %.2, align 1, !tbaa !28
  %53 = getelementptr inbounds nuw i8, ptr %.048, i64 1
  store i8 %52, ptr %.048, align 1, !tbaa !28
  %exitcond.not = icmp eq ptr %51, %13
  br i1 %exitcond.not, label %.thread62, label %50, !llvm.loop !60

.thread62:                                        ; preds = %50
  store i32 11, ptr %1, align 4, !tbaa !14
  br label %67

54:                                               ; preds = %39
  %55 = shl nuw nsw i32 %42, 8
  %56 = load i8, ptr %17, align 1, !tbaa !28
  %57 = zext i8 %56 to i32
  %58 = or disjoint i32 %55, %57
  %59 = shl nuw nsw i32 %31, 10
  %60 = add nsw i32 %59, -56613888
  %61 = add nuw nsw i32 %60, %58
  br label %67

.thread:                                          ; preds = %34, %39
  %62 = getelementptr inbounds nuw i8, ptr %4, i64 65
  %63 = getelementptr inbounds nuw i8, ptr %4, i64 64
  store i8 2, ptr %63, align 8, !tbaa !29
  %64 = load i8, ptr %10, align 1, !tbaa !28
  store i8 %64, ptr %62, align 1, !tbaa !28
  %65 = load i8, ptr %19, align 1, !tbaa !28
  %66 = getelementptr inbounds nuw i8, ptr %4, i64 66
  store i8 %65, ptr %66, align 1, !tbaa !28
  store i32 12, ptr %1, align 4, !tbaa !14
  br label %67

67:                                               ; preds = %54, %.thread62, %.thread, %25
  %.050 = phi i32 [ 65535, %.thread ], [ %61, %54 ], [ %31, %25 ], [ 65535, %.thread62 ]
  %.049 = phi ptr [ %17, %.thread ], [ %38, %54 ], [ %17, %25 ], [ %scevgep, %.thread62 ]
  store ptr %.049, ptr %9, align 8, !tbaa !22
  br label %68

68:                                               ; preds = %2, %67, %20, %15
  %.0 = phi i32 [ 65535, %15 ], [ 65535, %20 ], [ %.050, %67 ], [ -9, %2 ]
  ret i32 %.0
}